; Function Attrs: mustprogress uwtable
define void @_ZN6icu_7720TransliteratorParser5parseERKNS_13UnicodeStringE15UTransDirectionR11UParseErrorR10UErrorCode(ptr noundef nonnull align 8 dereferenceable(498) %0, ptr noundef nonnull align 8 dereferenceable(64) %1, i32 noundef %2, ptr noundef nonnull writeonly align 4 captures(none) dereferenceable(72) %3, ptr noundef nonnull align 4 dereferenceable(4) %4) local_unnamed_addr #1 align 2 {
  %6 = load i32, ptr %4, align 4, !tbaa !13
  %7 = icmp sgt i32 %6, 0
  br i1 %7, label %10, label %8

8:                                                ; preds = %5
  tail call void @_ZN6icu_7720TransliteratorParser10parseRulesERKNS_13UnicodeStringE15UTransDirectionR10UErrorCode(ptr noundef nonnull align 8 dereferenceable(498) %0, ptr noundef nonnull align 8 dereferenceable(64) %1, i32 noundef %2, ptr noundef nonnull align 4 dereferenceable(4) %4)
  %9 = getelementptr inbounds nuw i8, ptr %0, i64 108
  tail call void @llvm.memcpy.p0.p0.i64(ptr noundef nonnull align 4 dereferenceable(72) %3, ptr noundef nonnull align 4 dereferenceable(72) %9, i64 72, i1 false), !tbaa.struct !85
  br label %10

10:                                               ; preds = %8, %5
  ret void
}